; Function Attrs: mustprogress uwtable
define void @_ZN10OpenSubdiv6v3_6_03Vtr8internal10Refinement28populateParentToChildMappingEv(ptr noundef nonnull align 8 dereferenceable(504) %0) local_unnamed_addr #7 align 2 {
  %2 = load ptr, ptr %0, align 8
  %3 = getelementptr inbounds i8, ptr %2, i64 16
  %4 = load ptr, ptr %3, align 8
  tail call void %4(ptr noundef nonnull align 8 dereferenceable(504) %0)
  %5 = getelementptr inbounds nuw i8, ptr %0, i64 36
  %6 = load i8, ptr %5, align 4
  %7 = trunc i8 %6 to i1
  br i1 %7, label %34, label %8

8:                                                ; preds = %1
  %9 = getelementptr inbounds nuw i8, ptr %0, i64 456
  %10 = getelementptr inbounds nuw i8, ptr %0, i64 8
  %11 = load ptr, ptr %10, align 8
  %12 = getelementptr inbounds nuw i8, ptr %11, i64 8
  %13 = load i32, ptr %12, align 8
  %14 = icmp sgt i32 %13, 0
  br i1 %14, label %.lr.ph.i.i, label %_ZN10OpenSubdiv6v3_6_03Vtr8internal10Refinement31markSparseChildComponentIndicesEv.exit

.lr.ph.i.i:                                       ; preds = %8
  %15 = getelementptr inbounds nuw i8, ptr %0, i64 240
  br label %16

16:                                               ; preds = %25, %.lr.ph.i.i
  %17 = phi ptr [ %11, %.lr.ph.i.i ], [ %26, %25 ]
  %indvars.iv.i.i = phi i64 [ 0, %.lr.ph.i.i ], [ %indvars.iv.next.i.i, %25 ]
  %18 = load ptr, ptr %9, align 8
  %19 = getelementptr inbounds %"struct.OpenSubdiv::v3_6_0::Vtr::internal::Refinement::SparseTag", ptr %18, i64 %indvars.iv.i.i
  %20 = load i8, ptr %19, align 1
  %21 = and i8 %20, 1
  %.not.i.i = icmp eq i8 %21, 0
  br i1 %.not.i.i, label %25, label %22

22:                                               ; preds = %16
  %23 = load ptr, ptr %15, align 8
  %24 = getelementptr inbounds i32, ptr %23, i64 %indvars.iv.i.i
  store i32 2, ptr %24, align 4
  %.pre.i.i = load ptr, ptr %10, align 8
  br label %25

25:                                               ; preds = %22, %16
  %26 = phi ptr [ %17, %16 ], [ %.pre.i.i, %22 ]
  %indvars.iv.next.i.i = add nuw nsw i64 %indvars.iv.i.i, 1
  %27 = getelementptr inbounds nuw i8, ptr %26, i64 8
  %28 = load i32, ptr %27, align 8
  %29 = sext i32 %28 to i64
  %30 = icmp slt i64 %indvars.iv.next.i.i, %29
  br i1 %30, label %16, label %_ZN10OpenSubdiv6v3_6_03Vtr8internal10Refinement31markSparseChildComponentIndicesEv.exit, !llvm.loop !14

_ZN10OpenSubdiv6v3_6_03Vtr8internal10Refinement31markSparseChildComponentIndicesEv.exit: ; preds = %25, %8
  tail call void @_ZN10OpenSubdiv6v3_6_03Vtr8internal10Refinement22markSparseEdgeChildrenEv(ptr noundef nonnull align 8 dereferenceable(504) %0)
  %31 = load ptr, ptr %0, align 8
  %32 = getelementptr inbounds i8, ptr %31, i64 24
  %33 = load ptr, ptr %32, align 8
  tail call void %33(ptr noundef nonnull align 8 dereferenceable(504) %0)
  br label %34

34:                                               ; preds = %_ZN10OpenSubdiv6v3_6_03Vtr8internal10Refinement31markSparseChildComponentIndicesEv.exit, %1
  tail call void @_ZN10OpenSubdiv6v3_6_03Vtr8internal10Refinement26populateParentChildIndicesEv(ptr noundef nonnull align 8 dereferenceable(504) %0)
  ret void
}